; Function Attrs: mustprogress nounwind uwtable
define hidden void @_ZN10SensorInfo24process_pending_requestsEP10JavaThread(ptr nocapture noundef nonnull align 8 dereferenceable(64) %0, ptr noundef %1) local_unnamed_addr #1 align 2 {
  %3 = getelementptr inbounds i8, ptr %0, i64 24
  %4 = load i32, ptr %3, align 8
  %5 = getelementptr inbounds i8, ptr %0, i64 28
  %6 = load i32, ptr %5, align 4
  %7 = icmp sgt i32 %6, 0
  br i1 %7, label %8, label %9

8:                                                ; preds = %2
  tail call void @_ZN10SensorInfo5clearEiP10JavaThread(ptr noundef nonnull align 8 dereferenceable(64) %0, i32 noundef %4, ptr noundef %1)
  br label %10

9:                                                ; preds = %2
  tail call void @_ZN10SensorInfo7triggerEiP10JavaThread(ptr noundef nonnull align 8 dereferenceable(64) %0, i32 noundef %4, ptr noundef %1)
  br label %10

10:                                               ; preds = %9, %8
  ret void
}